Certificate:
    Data:
        Version: 3 (0x2)
        Serial Number: 1 (0x1)
        Signature Algorithm: sha1WithRSAEncryption
        Issuer: DC=info, DC=OpenXPKI, CN=CA_1
        Validity
            Not Before: Oct  3 18:47:12 2005 GMT
            Not After : Oct  3 18:47:12 2006 GMT
        Subject: DC=info, DC=OpenCA, CN=John Doe
        Subject Public Key Info:
            Public Key Algorithm: rsaEncryption
            RSA Public Key: (1024 bit)
                Modulus (1024 bit):
                    00:b6:b6:20:ca:14:26:05:a3:cc:f5:e8:67:a2:fa:
                    7f:1c:8a:a1:55:3d:33:02:0a:d5:4b:85:87:2f:03:
                    c0:a8:46:a7:c0:cf:23:fd:d6:2d:30:08:d5:01:41:
                    7f:e3:4a:52:a8:c8:56:86:8c:42:5d:06:c3:8e:b8:
                    f1:87:fa:ca:46:ba:5f:95:3d:fb:f1:b8:d2:ad:cc:
                    e7:09:6a:2e:4b:37:af:b0:e5:32:3e:95:5c:a4:f8:
                    7d:5a:8f:4e:83:d2:be:10:73:ae:23:f7:17:a5:79:
                    78:59:23:d1:72:65:9b:18:45:0a:42:c0:0b:44:1e:
                    13:9b:a1:5d:77:0d:8c:e6:55
                Exponent: 65537 (0x10001)
        X509v3 extensions:
            X509v3 Basic Constraints: critical
                CA:FALSE
            Netscape Cert Type: 
                SSL Client, S/MIME
            X509v3 Key Usage: 
                Digital Signature, Non Repudiation, Key Encipherment
            X509v3 Extended Key Usage: 
                TLS Web Client Authentication, E-mail Protection, Microsoft Smartcardlogin
            Netscape Comment: 
                User Certificate of @ca_organization@
            X509v3 Subject Key Identifier: 
                24:31:B5:48:49:53:A4:0C:E5:AD:78:1D:D4:FB:82:F2:03:69:DD:69
            X509v3 Authority Key Identifier: 
                keyid:5D:F4:2F:82:AD:26:E9:EB:1A:76:90:ED:B8:28:A4:15:6A:F4:50:BE
                DirName:/DC=info/DC=OpenXPKI/CN=CA_1
                serial:88:C2:09:4C:A0:F6:62:F8

            X509v3 Subject Alternative Name: 
                email:john.doe@openca.info
            X509v3 Issuer Alternative Name: 
                email:john.doe@openca.info
            Netscape CA Revocation Url: 
                @NS_CRLDistributionPoint@
            Netscape Revocation Url: 
                @NS_CRLDistributionPoint@
            X509v3 CRL Distribution Points: 
                URI:http://www.openca.info/crl.crt

    Signature Algorithm: sha1WithRSAEncryption
        76:65:32:68:9c:8a:0b:17:dd:b0:8c:ce:35:21:a1:f5:eb:01:
        67:f4:df:0e:49:14:13:74:c3:bf:4c:ab:ad:87:38:ff:9b:0b:
        65:55:13:91:1a:60:94:53:f6:fb:1a:e6:a4:5b:46:13:e8:70:
        8a:26:fc:b6:c6:17:37:dd:be:02:67:d0:14:a3:25:c3:f2:10:
        ad:d2:c9:bd:8d:ea:0f:62:b4:8c:2f:ba:5f:fc:f2:93:1a:8a:
        39:55:1c:9d:c1:89:bf:8e:48:8b:70:5b:36:cb:67:d9:5a:38:
        d3:08:1c:2a:c1:1a:45:b8:44:d7:0f:c1:8a:6a:9c:1d:4b:10:
        db:d2
-----BEGIN CERTIFICATE-----
MIID4jCCA0ugAwIBAgIBATANBgkqhkiG9w0BAQUFADA/MRQwEgYKCZImiZPyLGQB
GRYEaW5mbzEYMBYGCgmSJomT8ixkARkWCE9wZW5YUEtJMQ0wCwYDVQQDDARDQV8x
MB4XDTA1MTAwMzE4NDcxMloXDTA2MTAwMzE4NDcxMlowQTEUMBIGCgmSJomT8ixk
ARkWBGluZm8xFjAUBgoJkiaJk/IsZAEZFgZPcGVuQ0ExETAPBgNVBAMMCEpvaG4g
RG9lMIGfMA0GCSqGSIb3DQEBAQUAA4GNADCBiQKBgQC2tiDKFCYFo8z16Gei+n8c
iqFVPTMCCtVLhYcvA8CoRqfAzyP91i0wCNUBQX/jSlKoyFaGjEJdBsOOuPGH+spG
ul+VPfvxuNKtzOcJai5LN6+w5TI+lVyk+H1aj06D0r4Qc64j9xeleXhZI9FyZZsY
RQpCwAtEHhOboV13DYzmVQIDAQABo4IB6jCCAeYwDAYDVR0TAQH/BAIwADARBglg
hkgBhvhCAQEEBAMCBaAwCwYDVR0PBAQDAgXgMCkGA1UdJQQiMCAGCCsGAQUFBwMC
BggrBgEFBQcDBAYKKwYBBAGCNxQCAjA0BglghkgBhvhCAQ0EJxYlVXNlciBDZXJ0
aWZpY2F0ZSBvZiBAY2Ffb3JnYW5pemF0aW9uQDAdBgNVHQ4EFgQUJDG1SElTpAzl
rXgd1PuC8gNp3WkwbwYDVR0jBGgwZoAUXfQvgq0m6esadpDtuCikFWr0UL6hQ6RB
MD8xFDASBgoJkiaJk/IsZAEZFgRpbmZvMRgwFgYKCZImiZPyLGQBGRYIT3BlblhQ
S0kxDTALBgNVBAMMBENBXzGCCQCIwglMoPZi+DAfBgNVHREEGDAWgRRqb2huLmRv
ZUBvcGVuY2EuaW5mbzAfBgNVHRIEGDAWgRRqb2huLmRvZUBvcGVuY2EuaW5mbzAo
BglghkgBhvhCAQQEGxYZQE5TX0NSTERpc3RyaWJ1dGlvblBvaW50QDAoBglghkgB
hvhCAQMEGxYZQE5TX0NSTERpc3RyaWJ1dGlvblBvaW50QDAvBgNVHR8EKDAmMCSg
IqAghh5odHRwOi8vd3d3Lm9wZW5jYS5pbmZvL2NybC5jcnQwDQYJKoZIhvcNAQEF
BQADgYEAdmUyaJyKCxfdsIzONSGh9esBZ/TfDkkUE3TDv0yrrYc4/5sLZVUTkRpg
lFP2+xrmpFtGE+hwiib8tsYXN92+AmfQFKMlw/IQrdLJvY3qD2K0jC+6X/zykxqK
OVUcncGJv45Ii3BbNstn2Vo40wgcKsEaRbhE1w/BimqcHUsQ29I=
-----END CERTIFICATE-----
