Certificate:
    Data:
        Version: 3 (0x2)
        Serial Number:
            2e:b9:ac:e2:64:8d:38:84:6c:a5:4e:c9:e8:6c:98:fa:d9:e9:b1:95
        Signature Algorithm: sha256WithRSAEncryption
        Issuer: CN=OpenXPKI Root CA 20210812
        Validity
            Not Before: Aug 12 10:56:13 2021 GMT
            Not After : Aug 30 10:56:13 2091 GMT
        Subject: C=DE, O=OpenXPKI, OU=PKI, CN=OpenXPKI Demo Issuing CA 20210812
        Subject Public Key Info:
            Public Key Algorithm: rsaEncryption
                RSA Public-Key: (3072 bit)
                Modulus:
                    00:d0:c3:69:e6:77:39:41:17:1a:36:1b:bb:f8:72:
                    b5:d7:3d:45:3a:93:04:4e:58:1d:02:d2:fa:c7:db:
                    cd:42:f7:b7:e1:6e:dd:71:e7:ad:b2:25:5b:93:53:
                    bd:ce:04:e5:59:6b:7b:12:97:5c:5f:65:2d:e3:7e:
                    ce:e3:f7:14:30:44:65:6a:ec:81:6f:c4:57:03:e1:
                    db:4f:e4:77:ef:7a:bf:fb:a2:e6:d5:24:eb:d9:29:
                    df:ff:54:ce:23:70:47:3f:74:27:1d:13:ed:d4:90:
                    56:df:ce:1d:67:16:0b:0f:7b:8d:0f:09:ac:ee:ab:
                    bd:75:fd:c4:6d:34:94:91:e9:b4:8f:67:4b:49:70:
                    6b:68:f5:99:b7:78:7e:ab:3e:e0:8d:8d:20:2e:7a:
                    b4:1b:ab:6f:83:ff:b5:9a:52:d5:36:c9:a3:73:a2:
                    f6:0b:09:28:a3:e9:ef:3e:b7:d9:53:ac:0c:1f:c6:
                    b0:ca:d3:29:78:3f:cf:1f:6f:e7:31:ed:83:ea:5c:
                    df:0f:80:0e:85:c9:17:d7:eb:52:7c:ef:39:34:ad:
                    41:9b:fd:ff:55:4a:2a:c9:6f:4b:29:ec:de:0a:40:
                    29:2b:8c:f2:91:e7:20:5c:a6:03:41:e8:98:68:4b:
                    8b:03:13:f7:4f:28:1a:b8:81:de:49:69:0b:5c:5c:
                    b7:fc:46:e3:42:13:42:3c:9a:71:17:23:4c:f2:2b:
                    e5:1e:e0:1b:bb:9d:fb:d9:83:f2:e8:4c:38:a0:cf:
                    ce:00:29:83:b3:bc:06:e2:22:58:c2:bb:99:05:e4:
                    ef:2b:17:67:62:79:8c:bd:d9:04:78:f6:53:54:47:
                    f7:5c:df:e1:6c:96:de:db:1c:1d:cc:29:47:94:71:
                    db:2d:93:70:57:c5:11:2a:8b:ec:b9:47:66:12:8d:
                    91:a4:d5:84:9a:bb:7f:8e:8e:63:98:79:b8:aa:d6:
                    ad:37:40:34:2f:9b:eb:67:08:ee:84:59:95:01:3b:
                    8b:df:2d:18:04:50:55:aa:29:d9
                Exponent: 65537 (0x10001)
        X509v3 extensions:
            X509v3 Subject Key Identifier: 
                43:E7:B5:72:C6:42:A2:01:A0:D6:11:81:CD:C9:E0:B4:97:79:7B:14
            X509v3 Key Usage: 
                Digital Signature, Certificate Sign, CRL Sign
            X509v3 Basic Constraints: critical
                CA:TRUE
            X509v3 Authority Key Identifier: 
                keyid:8B:00:1C:42:AB:88:36:D1:A8:86:EA:FA:F7:DD:ED:F5:10:F3:15:C8
                DirName:/CN=OpenXPKI Root CA 20210812
                serial:43:03:14:1B:DE:86:AC:3B:CC:53:EA:83:31:E2:75:1A:65:48:7E:55

    Signature Algorithm: sha256WithRSAEncryption
         0b:16:eb:fa:63:05:f8:4f:af:24:83:38:6c:f7:14:61:75:30:
         63:db:5d:1f:18:2f:88:b8:16:36:cf:44:fd:1d:af:64:0a:85:
         ce:65:42:95:cf:55:33:07:37:c7:66:7c:f0:6b:02:53:16:e4:
         75:8c:e2:7a:0e:e7:90:78:d1:e6:f3:48:a0:97:4f:66:e0:ae:
         d6:8e:34:64:33:ff:c0:02:69:26:31:44:92:72:ad:82:96:11:
         c5:2f:bd:4a:4d:55:8b:65:9c:c4:5d:02:3d:09:23:1b:72:14:
         87:44:8f:26:99:c8:22:63:8d:f2:d0:31:76:ad:1f:35:be:f5:
         79:02:9e:f6:e7:f7:bb:ea:d7:dc:40:c2:5f:2d:1c:77:d1:6e:
         0a:f8:b7:13:61:a3:2c:5f:71:1d:d5:15:f3:40:19:5b:1a:0f:
         44:19:76:98:de:22:00:c1:e5:20:e5:d6:50:5b:10:04:9a:61:
         c3:bc:7e:ad:6a:f5:41:29:3b:c5:90:c7:5c:6c:1f:b8:38:ca:
         a9:52:de:95:6f:53:5e:00:be:b2:91:03:f9:39:8d:e3:2d:1f:
         b6:bf:c8:eb:70:a9:3d:08:21:27:bb:fc:d9:f1:f1:19:f8:64:
         54:a1:31:b3:6f:1c:49:d9:1e:f2:32:29:2a:b6:0e:d9:6d:a0:
         eb:65:f2:78:7a:65:d3:c6:22:62:59:87:24:f6:82:ef:11:72:
         86:bd:5d:5d:4c:9a:bb:cf:6b:53:a6:6e:b4:3b:d9:18:42:1a:
         d5:2b:78:59:79:c6:52:c5:f3:a9:0f:5a:3c:a3:ed:36:53:85:
         88:d0:e9:8d:40:82:b3:14:e4:f2:74:94:ec:89:c9:4d:12:ad:
         24:63:e9:da:5b:9a:5d:ce:84:ac:5f:cd:f0:80:96:bf:d3:ba:
         ff:37:d6:0a:9f:be:59:76:f0:74:82:5a:9a:85:a6:d6:93:8a:
         6b:6e:75:cb:cb:a5:13:7e:51:a7:13:6e:f4:a0:d1:25:db:03:
         e2:cf:1c:59:48:5e
-----BEGIN CERTIFICATE-----
MIIEsDCCAxigAwIBAgIULrms4mSNOIRspU7J6GyY+tnpsZUwDQYJKoZIhvcNAQEL
BQAwJDEiMCAGA1UEAwwZT3BlblhQS0kgUm9vdCBDQSAyMDIxMDgxMjAgFw0yMTA4
MTIxMDU2MTNaGA8yMDkxMDgzMDEwNTYxM1owWjELMAkGA1UEBhMCREUxETAPBgNV
BAoMCE9wZW5YUEtJMQwwCgYDVQQLDANQS0kxKjAoBgNVBAMMIU9wZW5YUEtJIERl
bW8gSXNzdWluZyBDQSAyMDIxMDgxMjCCAaIwDQYJKoZIhvcNAQEBBQADggGPADCC
AYoCggGBANDDaeZ3OUEXGjYbu/hytdc9RTqTBE5YHQLS+sfbzUL3t+Fu3XHnrbIl
W5NTvc4E5VlrexKXXF9lLeN+zuP3FDBEZWrsgW/EVwPh20/kd+96v/ui5tUk69kp
3/9UziNwRz90Jx0T7dSQVt/OHWcWCw97jQ8JrO6rvXX9xG00lJHptI9nS0lwa2j1
mbd4fqs+4I2NIC56tBurb4P/tZpS1TbJo3Oi9gsJKKPp7z632VOsDB/GsMrTKXg/
zx9v5zHtg+pc3w+ADoXJF9frUnzvOTStQZv9/1VKKslvSyns3gpAKSuM8pHnIFym
A0HomGhLiwMT908oGriB3klpC1xct/xG40ITQjyacRcjTPIr5R7gG7ud+9mD8uhM
OKDPzgApg7O8BuIiWMK7mQXk7ysXZ2J5jL3ZBHj2U1RH91zf4WyW3tscHcwpR5Rx
2y2TcFfFESqL7LlHZhKNkaTVhJq7f46OY5h5uKrWrTdANC+b62cI7oRZlQE7i98t
GARQVaop2QIDAQABo4GhMIGeMB0GA1UdDgQWBBRD57VyxkKiAaDWEYHNyeC0l3l7
FDALBgNVHQ8EBAMCAYYwDwYDVR0TAQH/BAUwAwEB/zBfBgNVHSMEWDBWgBSLABxC
q4g20aiG6vr33e31EPMVyKEopCYwJDEiMCAGA1UEAwwZT3BlblhQS0kgUm9vdCBD
QSAyMDIxMDgxMoIUQwMUG96GrDvMU+qDMeJ1GmVIflUwDQYJKoZIhvcNAQELBQAD
ggGBAAsW6/pjBfhPrySDOGz3FGF1MGPbXR8YL4i4FjbPRP0dr2QKhc5lQpXPVTMH
N8dmfPBrAlMW5HWM4noO55B40ebzSKCXT2bgrtaONGQz/8ACaSYxRJJyrYKWEcUv
vUpNVYtlnMRdAj0JIxtyFIdEjyaZyCJjjfLQMXatHzW+9XkCnvbn97vq19xAwl8t
HHfRbgr4txNhoyxfcR3VFfNAGVsaD0QZdpjeIgDB5SDl1lBbEASaYcO8fq1q9UEp
O8WQx1xsH7g4yqlS3pVvU14AvrKRA/k5jeMtH7a/yOtwqT0IISe7/Nnx8Rn4ZFSh
MbNvHEnZHvIyKSq2DtltoOtl8nh6ZdPGImJZhyT2gu8Rcoa9XV1MmrvPa1OmbrQ7
2RhCGtUreFl5xlLF86kPWjyj7TZThYjQ6Y1AgrMU5PJ0lOyJyU0SrSRj6dpbml3O
hKxfzfCAlr/Tuv831gqfvll28HSCWpqFptaTimtudcvLpRN+UacTbvSg0SXbA+LP
HFlIXg==
-----END CERTIFICATE-----
